; Function Attrs: nounwind uwtable
define internal range(i32 1, 4) i32 @io_write(ptr noundef %0) #0 {
  tail call void @lua_rawgeti(ptr noundef %0, i32 noundef -10001, i32 noundef 2) #9
  %2 = tail call ptr @lua_touserdata(ptr noundef %0, i32 noundef -1) #9
  %3 = load ptr, ptr %2, align 8, !tbaa !4
  %4 = icmp eq ptr %3, null
  br i1 %4, label %5, label %getiofile.exit

5:                                                ; preds = %1
  %6 = tail call i32 (ptr, ptr, ...) @luaL_error(ptr noundef %0, ptr noundef nonnull @.str.39, ptr noundef nonnull @.str.36) #9
  br label %getiofile.exit

getiofile.exit:                                   ; preds = %1, %5
  %7 = tail call fastcc i32 @g_write(ptr noundef %0, ptr noundef %3, i32 noundef 1)
  ret i32 %7
}